target datalayout = "e-m:e-p270:32:32-p271:32:32-p272:64:64-i64:64-i128:128-f80:128-n8:16:32:64-S128"
target triple = "x86_64-pc-linux-gnu"

%struct._TSUM_PREFERENCES = type { i32, i8, ptr, ptr, i8, i32, i8, i8, i8, i8, i8, i8, i8, i8 }
%struct.nstime_t = type { i64, i32 }
%struct._RRPD = type { i8, i8, i32, i64, i64, i8, i8, i32, %struct.nstime_t, i32, %struct.nstime_t, i32, %struct.nstime_t, i32, %struct.nstime_t, i32, i32, i32 }

@preferences = hidden global %struct._TSUM_PREFERENCES zeroinitializer, align 8
@output_rrpd = internal global ptr null, align 8

; Function Attrs: null_pointer_is_valid sspstrong uwtable
define internal void @update_output_rrpd(ptr noundef %0) #0 {
  %2 = alloca ptr, align 8
  store ptr %0, ptr %2, align 8
  %3 = load i8, ptr getelementptr inbounds nuw (%struct._TSUM_PREFERENCES, ptr @preferences, i32 0, i32 6), align 8, !range !6, !noundef !7
  %4 = trunc i8 %3 to i1
  br i1 %4, label %5, label %14

5:                                                ; preds = %1
  %6 = load ptr, ptr @output_rrpd, align 8
  %7 = load ptr, ptr %2, align 8
  %8 = getelementptr inbounds nuw %struct._RRPD, ptr %7, i32 0, i32 7
  %9 = load i32, ptr %8, align 4
  %10 = zext i32 %9 to i64
  %11 = inttoptr i64 %10 to ptr
  %12 = load ptr, ptr %2, align 8
  %13 = call ptr @wmem_map_insert(ptr noundef %6, ptr noundef %11, ptr noundef %12)
  br label %14

14:                                               ; preds = %5, %1
  %15 = load i8, ptr getelementptr inbounds nuw (%struct._TSUM_PREFERENCES, ptr @preferences, i32 0, i32 7), align 1, !range !6, !noundef !7
  %16 = trunc i8 %15 to i1
  br i1 %16, label %17, label %26

17:                                               ; preds = %14
  %18 = load ptr, ptr @output_rrpd, align 8
  %19 = load ptr, ptr %2, align 8
  %20 = getelementptr inbounds nuw %struct._RRPD, ptr %19, i32 0, i32 9
  %21 = load i32, ptr %20, align 8
  %22 = zext i32 %21 to i64
  %23 = inttoptr i64 %22 to ptr
  %24 = load ptr, ptr %2, align 8
  %25 = call ptr @wmem_map_insert(ptr noundef %18, ptr noundef %23, ptr noundef %24)
  br label %26

26:                                               ; preds = %17, %14
  %27 = load i8, ptr getelementptr inbounds nuw (%struct._TSUM_PREFERENCES, ptr @preferences, i32 0, i32 8), align 2, !range !6, !noundef !7
  %28 = trunc i8 %27 to i1
  br i1 %28, label %29, label %38

29:                                               ; preds = %26
  %30 = load ptr, ptr @output_rrpd, align 8
  %31 = load ptr, ptr %2, align 8
  %32 = getelementptr inbounds nuw %struct._RRPD, ptr %31, i32 0, i32 11
  %33 = load i32, ptr %32, align 8
  %34 = zext i32 %33 to i64
  %35 = inttoptr i64 %34 to ptr
  %36 = load ptr, ptr %2, align 8
  %37 = call ptr @wmem_map_insert(ptr noundef %30, ptr noundef %35, ptr noundef %36)
  br label %38

38:                                               ; preds = %29, %26
  %39 = load i8, ptr getelementptr inbounds nuw (%struct._TSUM_PREFERENCES, ptr @preferences, i32 0, i32 9), align 1, !range !6, !noundef !7
  %40 = trunc i8 %39 to i1
  br i1 %40, label %41, label %50

41:                                               ; preds = %38
  %42 = load ptr, ptr @output_rrpd, align 8
  %43 = load ptr, ptr %2, align 8
  %44 = getelementptr inbounds nuw %struct._RRPD, ptr %43, i32 0, i32 13
  %45 = load i32, ptr %44, align 8
  %46 = zext i32 %45 to i64
  %47 = inttoptr i64 %46 to ptr
  %48 = load ptr, ptr %2, align 8
  %49 = call ptr @wmem_map_insert(ptr noundef %42, ptr noundef %47, ptr noundef %48)
  br label %50

50:                                               ; preds = %41, %38
  ret void
}

; Function Attrs: null_pointer_is_valid sspstrong uwtable
define internal void @null_output_rrpd_entries(ptr noundef %0) #0 {
  %2 = alloca ptr, align 8
  store ptr %0, ptr %2, align 8
  %3 = load ptr, ptr @output_rrpd, align 8
  %4 = load ptr, ptr %2, align 8
  %5 = getelementptr inbounds nuw %struct._RRPD, ptr %4, i32 0, i32 7
  %6 = load i32, ptr %5, align 4
  %7 = zext i32 %6 to i64
  %8 = inttoptr i64 %7 to ptr
  %9 = call ptr @wmem_map_remove(ptr noundef %3, ptr noundef %8)
  %10 = load ptr, ptr @output_rrpd, align 8
  %11 = load ptr, ptr %2, align 8
  %12 = getelementptr inbounds nuw %struct._RRPD, ptr %11, i32 0, i32 9
  %13 = load i32, ptr %12, align 8
  %14 = zext i32 %13 to i64
  %15 = inttoptr i64 %14 to ptr
  %16 = call ptr @wmem_map_remove(ptr noundef %10, ptr noundef %15)
  %17 = load ptr, ptr @output_rrpd, align 8
  %18 = load ptr, ptr %2, align 8
  %19 = getelementptr inbounds nuw %struct._RRPD, ptr %18, i32 0, i32 11
  %20 = load i32, ptr %19, align 8
  %21 = zext i32 %20 to i64
  %22 = inttoptr i64 %21 to ptr
  %23 = call ptr @wmem_map_remove(ptr noundef %17, ptr noundef %22)
  %24 = load ptr, ptr @output_rrpd, align 8
  %25 = load ptr, ptr %2, align 8
  %26 = getelementptr inbounds nuw %struct._RRPD, ptr %25, i32 0, i32 13
  %27 = load i32, ptr %26, align 8
  %28 = zext i32 %27 to i64
  %29 = inttoptr i64 %28 to ptr
  %30 = call ptr @wmem_map_remove(ptr noundef %24, ptr noundef %29)
  ret void
}

; Function Attrs: null_pointer_is_valid sspstrong uwtable
define internal void @update_rrpd_list_entry(ptr noundef %0, ptr noundef %1) #0 {
  %3 = alloca ptr, align 8
  %4 = alloca ptr, align 8
  store ptr %0, ptr %3, align 8
  store ptr %1, ptr %4, align 8
  %5 = load ptr, ptr %3, align 8
  call void @null_output_rrpd_entries(ptr noundef %5)
  %6 = load i8, ptr getelementptr inbounds nuw (%struct._TSUM_PREFERENCES, ptr @preferences, i32 0, i32 13), align 1, !range !6, !noundef !7
  %7 = trunc i8 %6 to i1
  br i1 %7, label %8, label %23

8:                                                ; preds = %2
  %9 = load ptr, ptr %4, align 8
  %10 = getelementptr inbounds nuw %struct._RRPD, ptr %9, i32 0, i32 16
  %11 = load i32, ptr %10, align 4
  %12 = load ptr, ptr %3, align 8
  %13 = getelementptr inbounds nuw %struct._RRPD, ptr %12, i32 0, i32 16
  %14 = load i32, ptr %13, align 4
  %15 = add i32 %14, %11
  store i32 %15, ptr %13, align 4
  %16 = load ptr, ptr %4, align 8
  %17 = getelementptr inbounds nuw %struct._RRPD, ptr %16, i32 0, i32 17
  %18 = load i32, ptr %17, align 8
  %19 = load ptr, ptr %3, align 8
  %20 = getelementptr inbounds nuw %struct._RRPD, ptr %19, i32 0, i32 17
  %21 = load i32, ptr %20, align 8
  %22 = add i32 %21, %18
  store i32 %22, ptr %20, align 8
  br label %23

23:                                               ; preds = %8, %2
  %24 = load ptr, ptr %4, align 8
  %25 = getelementptr inbounds nuw %struct._RRPD, ptr %24, i32 0, i32 0
  %26 = load i8, ptr %25, align 8, !range !6, !noundef !7
  %27 = trunc i8 %26 to i1
  br i1 %27, label %28, label %54

28:                                               ; preds = %23
  %29 = load ptr, ptr %4, align 8
  %30 = getelementptr inbounds nuw %struct._RRPD, ptr %29, i32 0, i32 9
  %31 = load i32, ptr %30, align 8
  %32 = load ptr, ptr %3, align 8
  %33 = getelementptr inbounds nuw %struct._RRPD, ptr %32, i32 0, i32 9
  store i32 %31, ptr %33, align 8
  %34 = load ptr, ptr %3, align 8
  %35 = getelementptr inbounds nuw %struct._RRPD, ptr %34, i32 0, i32 10
  %36 = load ptr, ptr %4, align 8
  %37 = getelementptr inbounds nuw %struct._RRPD, ptr %36, i32 0, i32 10
  call void @llvm.memcpy.p0.p0.i64(ptr align 8 %35, ptr align 8 %37, i64 16, i1 false)
  %38 = load ptr, ptr %4, align 8
  %39 = getelementptr inbounds nuw %struct._RRPD, ptr %38, i32 0, i32 4
  %40 = load i64, ptr %39, align 8
  %41 = icmp ne i64 %40, 0
  br i1 %41, label %42, label %53

42:                                               ; preds = %28
  %43 = load ptr, ptr %4, align 8
  %44 = getelementptr inbounds nuw %struct._RRPD, ptr %43, i32 0, i32 3
  %45 = load i64, ptr %44, align 8
  %46 = load ptr, ptr %3, align 8
  %47 = getelementptr inbounds nuw %struct._RRPD, ptr %46, i32 0, i32 3
  store i64 %45, ptr %47, align 8
  %48 = load ptr, ptr %4, align 8
  %49 = getelementptr inbounds nuw %struct._RRPD, ptr %48, i32 0, i32 4
  %50 = load i64, ptr %49, align 8
  %51 = load ptr, ptr %3, align 8
  %52 = getelementptr inbounds nuw %struct._RRPD, ptr %51, i32 0, i32 4
  store i64 %50, ptr %52, align 8
  br label %53

53:                                               ; preds = %42, %28
  br label %79

54:                                               ; preds = %23
  %55 = load ptr, ptr %3, align 8
  %56 = getelementptr inbounds nuw %struct._RRPD, ptr %55, i32 0, i32 11
  %57 = load i32, ptr %56, align 8
  %58 = icmp ne i32 %57, 0
  br i1 %58, label %69, label %59

59:                                               ; preds = %54
  %60 = load ptr, ptr %4, align 8
  %61 = getelementptr inbounds nuw %struct._RRPD, ptr %60, i32 0, i32 11
  %62 = load i32, ptr %61, align 8
  %63 = load ptr, ptr %3, align 8
  %64 = getelementptr inbounds nuw %struct._RRPD, ptr %63, i32 0, i32 11
  store i32 %62, ptr %64, align 8
  %65 = load ptr, ptr %3, align 8
  %66 = getelementptr inbounds nuw %struct._RRPD, ptr %65, i32 0, i32 12
  %67 = load ptr, ptr %4, align 8
  %68 = getelementptr inbounds nuw %struct._RRPD, ptr %67, i32 0, i32 12
  call void @llvm.memcpy.p0.p0.i64(ptr align 8 %66, ptr align 8 %68, i64 16, i1 false)
  br label %69

69:                                               ; preds = %59, %54
  %70 = load ptr, ptr %4, align 8
  %71 = getelementptr inbounds nuw %struct._RRPD, ptr %70, i32 0, i32 13
  %72 = load i32, ptr %71, align 8
  %73 = load ptr, ptr %3, align 8
  %74 = getelementptr inbounds nuw %struct._RRPD, ptr %73, i32 0, i32 13
  store i32 %72, ptr %74, align 8
  %75 = load ptr, ptr %3, align 8
  %76 = getelementptr inbounds nuw %struct._RRPD, ptr %75, i32 0, i32 14
  %77 = load ptr, ptr %4, align 8
  %78 = getelementptr inbounds nuw %struct._RRPD, ptr %77, i32 0, i32 14
  call void @llvm.memcpy.p0.p0.i64(ptr align 8 %76, ptr align 8 %78, i64 16, i1 false)
  br label %79

79:                                               ; preds = %69, %53
  %80 = load ptr, ptr %3, align 8
  call void @update_output_rrpd(ptr noundef %80)
  ret void
}