; Function Attrs: null_pointer_is_valid sspstrong uwtable
define internal fastcc void @update_rrpd_list_entry(ptr noundef nonnull %0, ptr noundef readonly captures(none) %1) unnamed_addr #0 {
  %3 = load ptr, ptr @output_rrpd, align 8
  %4 = getelementptr inbounds nuw i8, ptr %0, i64 28
  %5 = load i32, ptr %4, align 4
  %6 = zext i32 %5 to i64
  %7 = inttoptr i64 %6 to ptr
  %8 = tail call ptr @wmem_map_remove(ptr noundef %3, ptr noundef %7)
  %9 = load ptr, ptr @output_rrpd, align 8
  %10 = getelementptr inbounds nuw i8, ptr %0, i64 48
  %11 = load i32, ptr %10, align 8
  %12 = zext i32 %11 to i64
  %13 = inttoptr i64 %12 to ptr
  %14 = tail call ptr @wmem_map_remove(ptr noundef %9, ptr noundef %13)
  %15 = load ptr, ptr @output_rrpd, align 8
  %16 = getelementptr inbounds nuw i8, ptr %0, i64 72
  %17 = load i32, ptr %16, align 8
  %18 = zext i32 %17 to i64
  %19 = inttoptr i64 %18 to ptr
  %20 = tail call ptr @wmem_map_remove(ptr noundef %15, ptr noundef %19)
  %21 = load ptr, ptr @output_rrpd, align 8
  %22 = getelementptr inbounds nuw i8, ptr %0, i64 96
  %23 = load i32, ptr %22, align 8
  %24 = zext i32 %23 to i64
  %25 = inttoptr i64 %24 to ptr
  %26 = tail call ptr @wmem_map_remove(ptr noundef %21, ptr noundef %25)
  %27 = load i8, ptr getelementptr inbounds nuw (i8, ptr @preferences, i64 39), align 1, !range !6, !noundef !7
  %28 = trunc nuw i8 %27 to i1
  br i1 %28, label %29, label %40

29:                                               ; preds = %2
  %30 = getelementptr inbounds nuw i8, ptr %1, i64 124
  %31 = load i32, ptr %30, align 4
  %32 = getelementptr inbounds nuw i8, ptr %0, i64 124
  %33 = load i32, ptr %32, align 4
  %34 = add i32 %33, %31
  store i32 %34, ptr %32, align 4
  %35 = getelementptr inbounds nuw i8, ptr %1, i64 128
  %36 = load i32, ptr %35, align 8
  %37 = getelementptr inbounds nuw i8, ptr %0, i64 128
  %38 = load i32, ptr %37, align 8
  %39 = add i32 %38, %36
  store i32 %39, ptr %37, align 8
  br label %40

40:                                               ; preds = %29, %2
  %41 = load i8, ptr %1, align 8, !range !6, !noundef !7
  %42 = trunc nuw i8 %41 to i1
  br i1 %42, label %43, label %56

43:                                               ; preds = %40
  %44 = getelementptr inbounds nuw i8, ptr %1, i64 48
  %45 = load i32, ptr %44, align 8
  store i32 %45, ptr %10, align 8
  %46 = getelementptr inbounds nuw i8, ptr %0, i64 56
  %47 = getelementptr inbounds nuw i8, ptr %1, i64 56
  tail call void @llvm.memcpy.p0.p0.i64(ptr noundef nonnull align 8 dereferenceable(16) %46, ptr noundef nonnull align 8 dereferenceable(16) %47, i64 16, i1 false)
  %48 = getelementptr inbounds nuw i8, ptr %1, i64 16
  %49 = load i64, ptr %48, align 8
  %.not25 = icmp eq i64 %49, 0
  br i1 %.not25, label %68, label %50

50:                                               ; preds = %43
  %51 = getelementptr inbounds nuw i8, ptr %1, i64 8
  %52 = load i64, ptr %51, align 8
  %53 = getelementptr inbounds nuw i8, ptr %0, i64 8
  store i64 %52, ptr %53, align 8
  %54 = load i64, ptr %48, align 8
  %55 = getelementptr inbounds nuw i8, ptr %0, i64 16
  store i64 %54, ptr %55, align 8
  br label %68

56:                                               ; preds = %40
  %57 = load i32, ptr %16, align 8
  %.not = icmp eq i32 %57, 0
  br i1 %.not, label %58, label %63

58:                                               ; preds = %56
  %59 = getelementptr inbounds nuw i8, ptr %1, i64 72
  %60 = load i32, ptr %59, align 8
  store i32 %60, ptr %16, align 8
  %61 = getelementptr inbounds nuw i8, ptr %0, i64 80
  %62 = getelementptr inbounds nuw i8, ptr %1, i64 80
  tail call void @llvm.memcpy.p0.p0.i64(ptr noundef nonnull align 8 dereferenceable(16) %61, ptr noundef nonnull align 8 dereferenceable(16) %62, i64 16, i1 false)
  br label %63

63:                                               ; preds = %58, %56
  %64 = getelementptr inbounds nuw i8, ptr %1, i64 96
  %65 = load i32, ptr %64, align 8
  store i32 %65, ptr %22, align 8
  %66 = getelementptr inbounds nuw i8, ptr %0, i64 104
  %67 = getelementptr inbounds nuw i8, ptr %1, i64 104
  tail call void @llvm.memcpy.p0.p0.i64(ptr noundef nonnull align 8 dereferenceable(16) %66, ptr noundef nonnull align 8 dereferenceable(16) %67, i64 16, i1 false)
  br label %68

68:                                               ; preds = %43, %50, %63
  %69 = load i8, ptr getelementptr inbounds nuw (i8, ptr @preferences, i64 32), align 8, !range !6, !noundef !7
  %70 = trunc nuw i8 %69 to i1
  br i1 %70, label %71, label %77

71:                                               ; preds = %68
  %72 = load ptr, ptr @output_rrpd, align 8
  %73 = load i32, ptr %4, align 4
  %74 = zext i32 %73 to i64
  %75 = inttoptr i64 %74 to ptr
  %76 = tail call ptr @wmem_map_insert(ptr noundef %72, ptr noundef %75, ptr noundef nonnull %0)
  br label %77

77:                                               ; preds = %71, %68
  %78 = load i8, ptr getelementptr inbounds nuw (i8, ptr @preferences, i64 33), align 1, !range !6, !noundef !7
  %79 = trunc nuw i8 %78 to i1
  br i1 %79, label %80, label %86

80:                                               ; preds = %77
  %81 = load ptr, ptr @output_rrpd, align 8
  %82 = load i32, ptr %10, align 8
  %83 = zext i32 %82 to i64
  %84 = inttoptr i64 %83 to ptr
  %85 = tail call ptr @wmem_map_insert(ptr noundef %81, ptr noundef %84, ptr noundef nonnull %0)
  br label %86

86:                                               ; preds = %80, %77
  %87 = load i8, ptr getelementptr inbounds nuw (i8, ptr @preferences, i64 34), align 2, !range !6, !noundef !7
  %88 = trunc nuw i8 %87 to i1
  br i1 %88, label %89, label %95

89:                                               ; preds = %86
  %90 = load ptr, ptr @output_rrpd, align 8
  %91 = load i32, ptr %16, align 8
  %92 = zext i32 %91 to i64
  %93 = inttoptr i64 %92 to ptr
  %94 = tail call ptr @wmem_map_insert(ptr noundef %90, ptr noundef %93, ptr noundef nonnull %0)
  br label %95

95:                                               ; preds = %89, %86
  %96 = load i8, ptr getelementptr inbounds nuw (i8, ptr @preferences, i64 35), align 1, !range !6, !noundef !7
  %97 = trunc nuw i8 %96 to i1
  br i1 %97, label %98, label %update_output_rrpd.exit

98:                                               ; preds = %95
  %99 = load ptr, ptr @output_rrpd, align 8
  %100 = load i32, ptr %22, align 8
  %101 = zext i32 %100 to i64
  %102 = inttoptr i64 %101 to ptr
  %103 = tail call ptr @wmem_map_insert(ptr noundef %99, ptr noundef %102, ptr noundef nonnull %0)
  br label %update_output_rrpd.exit

update_output_rrpd.exit:                          ; preds = %95, %98
  ret void
}